(cnumpy.core.multiarray
_reconstruct
p0
(cnumpy
ndarray
p1
(I0
tp2
S'b'
p3
tp4
Rp5
(I1
(I3
tp6
cnumpy
dtype
p7
(S'f8'
p8
I0
I1
tp9
Rp10
(I3
S'<'
p11
NNNI-1
I-1
I0
tp12
bI00
S"\xfd_\x8cF\x81\xc1[@5W\xc3\xb9\xac\xeae@Ft\x18\x8f'ac@"
p13
tp14
bg0
(g1
(I0
tp15
g3
tp16
Rp17
(I1
(I3
tp18
g10
I00
S'\xd91\x81\xaaGR@@\x88U\xfdT\x99\x89)@\n\x0eG\xedq\x96 @'
p19
tp20
btp21
.